; Function Attrs: nounwind uwtable
define range(i32 -12, 1) i32 @ff_framesync_dualinput_get(ptr noundef captures(none) %0, ptr noundef writeonly captures(none) %1, ptr noundef writeonly captures(none) %2) local_unnamed_addr #3 {
  %4 = alloca ptr, align 8
  %5 = getelementptr inbounds nuw i8, ptr %0, i64 8
  %6 = load ptr, ptr %5, align 8, !tbaa !27
  call void @llvm.lifetime.start.p0(i64 8, ptr nonnull %4) #8
  store ptr null, ptr %4, align 8, !tbaa !60
  %7 = getelementptr inbounds nuw i8, ptr %0, i64 72
  %8 = load ptr, ptr %7, align 8, !tbaa !29
  %9 = getelementptr inbounds nuw i8, ptr %8, i64 16
  %10 = load ptr, ptr %9, align 8, !tbaa !57
  %.not.i = icmp eq ptr %10, null
  br i1 %.not.i, label %ff_framesync_get_frame.exit19.thread, label %11

11:                                               ; preds = %3
  %12 = getelementptr inbounds nuw i8, ptr %8, i64 48
  %13 = load i8, ptr %12, align 8, !tbaa !58
  %.not37.i = icmp eq i8 %13, 0
  br i1 %.not37.i, label %17, label %14

14:                                               ; preds = %11
  %15 = getelementptr inbounds nuw i8, ptr %8, i64 40
  %16 = load i64, ptr %15, align 8, !tbaa !43
  br label %17

17:                                               ; preds = %14, %11
  %18 = phi i64 [ %16, %14 ], [ 9223372036854775807, %11 ]
  %19 = getelementptr inbounds nuw i8, ptr %0, i64 16
  %20 = load i32, ptr %19, align 8, !tbaa !28
  %.not44.i = icmp eq i32 %20, 0
  br i1 %.not44.i, label %.sink.split.sink.split, label %.lr.ph.preheader.i

.lr.ph.preheader.i:                               ; preds = %17
  %21 = zext i32 %20 to i64
  br label %.lr.ph.i

.lr.ph.i:                                         ; preds = %33, %.lr.ph.preheader.i
  %indvars.iv.i = phi i64 [ 0, %.lr.ph.preheader.i ], [ %indvars.iv.next.i, %33 ]
  %.not40.i = icmp eq i64 %indvars.iv.i, 0
  br i1 %.not40.i, label %33, label %22

22:                                               ; preds = %.lr.ph.i
  %23 = getelementptr inbounds nuw %struct.FFFrameSyncIn, ptr %8, i64 %indvars.iv.i
  %24 = getelementptr inbounds nuw i8, ptr %23, i64 52
  %25 = load i32, ptr %24, align 4, !tbaa !36
  %.not41.i = icmp eq i32 %25, 0
  br i1 %.not41.i, label %33, label %26

26:                                               ; preds = %22
  %27 = getelementptr inbounds nuw i8, ptr %23, i64 48
  %28 = load i8, ptr %27, align 8, !tbaa !58
  %.not42.i = icmp eq i8 %28, 0
  br i1 %.not42.i, label %._crit_edge.i, label %29

29:                                               ; preds = %26
  %30 = getelementptr inbounds nuw i8, ptr %23, i64 40
  %31 = load i64, ptr %30, align 8, !tbaa !43
  %32 = icmp slt i64 %31, %18
  br i1 %32, label %._crit_edge.i, label %33

33:                                               ; preds = %29, %22, %.lr.ph.i
  %indvars.iv.next.i = add nuw nsw i64 %indvars.iv.i, 1
  %exitcond.not = icmp eq i64 %indvars.iv.next.i, %21
  br i1 %exitcond.not, label %.sink.split.sink.split, label %.lr.ph.i, !llvm.loop !59

._crit_edge.i:                                    ; preds = %29, %26
  %34 = tail call ptr @av_frame_clone(ptr noundef nonnull %10) #8
  %.not39.i = icmp eq ptr %34, null
  br i1 %.not39.i, label %35, label %.sink.split

35:                                               ; preds = %._crit_edge.i
  call void @av_frame_free(ptr noundef nonnull %4) #8
  br label %53

ff_framesync_get_frame.exit19.thread:             ; preds = %3
  tail call void (ptr, i32, ptr, ...) @av_log(ptr noundef null, i32 noundef 0, ptr noundef nonnull @.str.1, ptr noundef nonnull @.str.6, ptr noundef nonnull @.str.3, i32 noundef 401) #8
  tail call void @abort() #9
  unreachable

.sink.split.sink.split:                           ; preds = %33, %17
  store ptr null, ptr %9, align 8, !tbaa !57
  br label %.sink.split

.sink.split:                                      ; preds = %.sink.split.sink.split, %._crit_edge.i
  %.133.i27 = phi ptr [ %34, %._crit_edge.i ], [ %10, %.sink.split.sink.split ]
  %36 = getelementptr inbounds nuw i8, ptr %0, i64 64
  store i8 0, ptr %36, align 8, !tbaa !53
  %37 = load ptr, ptr %7, align 8, !tbaa !29
  %38 = getelementptr inbounds nuw i8, ptr %37, i64 80
  %39 = load ptr, ptr %38, align 8, !tbaa !57
  %40 = getelementptr inbounds nuw i8, ptr %0, i64 32
  %41 = load i64, ptr %40, align 8, !tbaa !81
  %42 = getelementptr inbounds nuw i8, ptr %0, i64 20
  %43 = getelementptr inbounds nuw i8, ptr %6, i64 56
  %44 = load ptr, ptr %43, align 8, !tbaa !54
  %45 = load ptr, ptr %44, align 8, !tbaa !55
  %46 = getelementptr inbounds nuw i8, ptr %45, i64 96
  %47 = load i64, ptr %42, align 4
  %48 = load i64, ptr %46, align 8
  %49 = tail call i64 @av_rescale_q(i64 noundef %41, i64 %47, i64 %48) #10
  %50 = getelementptr inbounds nuw i8, ptr %.133.i27, i64 136
  store i64 %49, ptr %50, align 8, !tbaa !65
  %51 = getelementptr inbounds nuw i8, ptr %6, i64 128
  %52 = load i32, ptr %51, align 8, !tbaa !84
  %.not14 = icmp eq i32 %52, 0
  %spec.select = select i1 %.not14, ptr %39, ptr null
  store ptr %.133.i27, ptr %1, align 8, !tbaa !60
  store ptr %spec.select, ptr %2, align 8, !tbaa !60
  br label %53

53:                                               ; preds = %.sink.split, %35
  %.010 = phi i32 [ -12, %35 ], [ 0, %.sink.split ]
  call void @llvm.lifetime.end.p0(i64 8, ptr nonnull %4) #8
  ret i32 %.010
}